target datalayout = "e-m:e-p270:32:32-p271:32:32-p272:64:64-i64:64-i128:128-f80:128-n8:16:32:64-S128"
target triple = "x86_64-pc-linux-gnu"

%struct._zend_refcounted_h = type { i32, %union.anon.3 }
%union.anon.3 = type { i32 }
%struct._zend_string = type { %struct._zend_refcounted_h, i64, i64, [1 x i8] }

; Function Attrs: nounwind uwtable
define i32 @zend_alter_ini_entry_chars(ptr noundef %0, ptr noundef %1, i64 noundef %2, i32 noundef %3, i32 noundef %4) #0 {
  %6 = alloca ptr, align 8
  %7 = alloca i32, align 4
  %8 = alloca i64, align 8
  %9 = alloca i8, align 1
  %10 = alloca ptr, align 8
  %11 = alloca ptr, align 8
  %12 = alloca i32, align 4
  %13 = alloca i32, align 4
  %14 = alloca ptr, align 8
  %15 = alloca ptr, align 8
  %16 = alloca i64, align 8
  %17 = alloca i8, align 1
  %18 = alloca ptr, align 8
  %19 = alloca ptr, align 8
  %20 = alloca ptr, align 8
  %21 = alloca i64, align 8
  %22 = alloca i32, align 4
  %23 = alloca i32, align 4
  %24 = alloca i32, align 4
  %25 = alloca ptr, align 8
  store ptr %0, ptr %19, align 8
  store ptr %1, ptr %20, align 8
  store i64 %2, ptr %21, align 8
  store i32 %3, ptr %22, align 4
  store i32 %4, ptr %23, align 4
  %26 = load ptr, ptr %20, align 8
  %27 = load i64, ptr %21, align 8
  %28 = load i32, ptr %23, align 4
  %29 = and i32 %28, 60
  %30 = icmp ne i32 %29, 0
  %31 = xor i1 %30, true
  store ptr %26, ptr %15, align 8
  store i64 %27, ptr %16, align 8
  %32 = zext i1 %31 to i8
  store i8 %32, ptr %17, align 1
  %33 = load i64, ptr %16, align 8
  %34 = load i8, ptr %17, align 1
  %35 = trunc i8 %34 to i1
  store i64 %33, ptr %8, align 8
  %36 = zext i1 %35 to i8
  store i8 %36, ptr %9, align 1
  %37 = load i8, ptr %9, align 1
  %38 = trunc i8 %37 to i1
  br i1 %38, label %39, label %47

39:                                               ; preds = %5
  %40 = load i64, ptr %8, align 8
  %41 = add i64 24, %40
  %42 = add i64 %41, 1
  %43 = add i64 %42, 8
  %44 = sub i64 %43, 1
  %45 = and i64 %44, -8
  %46 = call noalias ptr @__zend_malloc(i64 noundef %45) #12
  br label %451

47:                                               ; preds = %5
  %48 = load i64, ptr %8, align 8
  %49 = add i64 24, %48
  %50 = add i64 %49, 1
  %51 = add i64 %50, 8
  %52 = sub i64 %51, 1
  %53 = and i64 %52, -8
  %54 = call i1 @llvm.is.constant.i64(i64 %53)
  br i1 %54, label %55, label %441

55:                                               ; preds = %47
  %56 = load i64, ptr %8, align 8
  %57 = add i64 24, %56
  %58 = add i64 %57, 1
  %59 = add i64 %58, 8
  %60 = sub i64 %59, 1
  %61 = and i64 %60, -8
  %62 = icmp ule i64 %61, 8
  br i1 %62, label %63, label %65

63:                                               ; preds = %55
  %64 = call noalias ptr @_emalloc_8() #13
  br label %439

65:                                               ; preds = %55
  %66 = load i64, ptr %8, align 8
  %67 = add i64 24, %66
  %68 = add i64 %67, 1
  %69 = add i64 %68, 8
  %70 = sub i64 %69, 1
  %71 = and i64 %70, -8
  %72 = icmp ule i64 %71, 16
  br i1 %72, label %73, label %75

73:                                               ; preds = %65
  %74 = call noalias ptr @_emalloc_16() #13
  br label %437

75:                                               ; preds = %65
  %76 = load i64, ptr %8, align 8
  %77 = add i64 24, %76
  %78 = add i64 %77, 1
  %79 = add i64 %78, 8
  %80 = sub i64 %79, 1
  %81 = and i64 %80, -8
  %82 = icmp ule i64 %81, 24
  br i1 %82, label %83, label %85

83:                                               ; preds = %75
  %84 = call noalias ptr @_emalloc_24() #13
  br label %435

85:                                               ; preds = %75
  %86 = load i64, ptr %8, align 8
  %87 = add i64 24, %86
  %88 = add i64 %87, 1
  %89 = add i64 %88, 8
  %90 = sub i64 %89, 1
  %91 = and i64 %90, -8
  %92 = icmp ule i64 %91, 32
  br i1 %92, label %93, label %95

93:                                               ; preds = %85
  %94 = call noalias ptr @_emalloc_32() #13
  br label %433

95:                                               ; preds = %85
  %96 = load i64, ptr %8, align 8
  %97 = add i64 24, %96
  %98 = add i64 %97, 1
  %99 = add i64 %98, 8
  %100 = sub i64 %99, 1
  %101 = and i64 %100, -8
  %102 = icmp ule i64 %101, 40
  br i1 %102, label %103, label %105

103:                                              ; preds = %95
  %104 = call noalias ptr @_emalloc_40() #13
  br label %431

105:                                              ; preds = %95
  %106 = load i64, ptr %8, align 8
  %107 = add i64 24, %106
  %108 = add i64 %107, 1
  %109 = add i64 %108, 8
  %110 = sub i64 %109, 1
  %111 = and i64 %110, -8
  %112 = icmp ule i64 %111, 48
  br i1 %112, label %113, label %115

113:                                              ; preds = %105
  %114 = call noalias ptr @_emalloc_48() #13
  br label %429

115:                                              ; preds = %105
  %116 = load i64, ptr %8, align 8
  %117 = add i64 24, %116
  %118 = add i64 %117, 1
  %119 = add i64 %118, 8
  %120 = sub i64 %119, 1
  %121 = and i64 %120, -8
  %122 = icmp ule i64 %121, 56
  br i1 %122, label %123, label %125

123:                                              ; preds = %115
  %124 = call noalias ptr @_emalloc_56() #13
  br label %427

125:                                              ; preds = %115
  %126 = load i64, ptr %8, align 8
  %127 = add i64 24, %126
  %128 = add i64 %127, 1
  %129 = add i64 %128, 8
  %130 = sub i64 %129, 1
  %131 = and i64 %130, -8
  %132 = icmp ule i64 %131, 64
  br i1 %132, label %133, label %135

133:                                              ; preds = %125
  %134 = call noalias ptr @_emalloc_64() #13
  br label %425

135:                                              ; preds = %125
  %136 = load i64, ptr %8, align 8
  %137 = add i64 24, %136
  %138 = add i64 %137, 1
  %139 = add i64 %138, 8
  %140 = sub i64 %139, 1
  %141 = and i64 %140, -8
  %142 = icmp ule i64 %141, 80
  br i1 %142, label %143, label %145

143:                                              ; preds = %135
  %144 = call noalias ptr @_emalloc_80() #13
  br label %423

145:                                              ; preds = %135
  %146 = load i64, ptr %8, align 8
  %147 = add i64 24, %146
  %148 = add i64 %147, 1
  %149 = add i64 %148, 8
  %150 = sub i64 %149, 1
  %151 = and i64 %150, -8
  %152 = icmp ule i64 %151, 96
  br i1 %152, label %153, label %155

153:                                              ; preds = %145
  %154 = call noalias ptr @_emalloc_96() #13
  br label %421

155:                                              ; preds = %145
  %156 = load i64, ptr %8, align 8
  %157 = add i64 24, %156
  %158 = add i64 %157, 1
  %159 = add i64 %158, 8
  %160 = sub i64 %159, 1
  %161 = and i64 %160, -8
  %162 = icmp ule i64 %161, 112
  br i1 %162, label %163, label %165

163:                                              ; preds = %155
  %164 = call noalias ptr @_emalloc_112() #13
  br label %419

165:                                              ; preds = %155
  %166 = load i64, ptr %8, align 8
  %167 = add i64 24, %166
  %168 = add i64 %167, 1
  %169 = add i64 %168, 8
  %170 = sub i64 %169, 1
  %171 = and i64 %170, -8
  %172 = icmp ule i64 %171, 128
  br i1 %172, label %173, label %175

173:                                              ; preds = %165
  %174 = call noalias ptr @_emalloc_128() #13
  br label %417

175:                                              ; preds = %165
  %176 = load i64, ptr %8, align 8
  %177 = add i64 24, %176
  %178 = add i64 %177, 1
  %179 = add i64 %178, 8
  %180 = sub i64 %179, 1
  %181 = and i64 %180, -8
  %182 = icmp ule i64 %181, 160
  br i1 %182, label %183, label %185

183:                                              ; preds = %175
  %184 = call noalias ptr @_emalloc_160() #13
  br label %415

185:                                              ; preds = %175
  %186 = load i64, ptr %8, align 8
  %187 = add i64 24, %186
  %188 = add i64 %187, 1
  %189 = add i64 %188, 8
  %190 = sub i64 %189, 1
  %191 = and i64 %190, -8
  %192 = icmp ule i64 %191, 192
  br i1 %192, label %193, label %195

193:                                              ; preds = %185
  %194 = call noalias ptr @_emalloc_192() #13
  br label %413

195:                                              ; preds = %185
  %196 = load i64, ptr %8, align 8
  %197 = add i64 24, %196
  %198 = add i64 %197, 1
  %199 = add i64 %198, 8
  %200 = sub i64 %199, 1
  %201 = and i64 %200, -8
  %202 = icmp ule i64 %201, 224
  br i1 %202, label %203, label %205

203:                                              ; preds = %195
  %204 = call noalias ptr @_emalloc_224() #13
  br label %411

205:                                              ; preds = %195
  %206 = load i64, ptr %8, align 8
  %207 = add i64 24, %206
  %208 = add i64 %207, 1
  %209 = add i64 %208, 8
  %210 = sub i64 %209, 1
  %211 = and i64 %210, -8
  %212 = icmp ule i64 %211, 256
  br i1 %212, label %213, label %215

213:                                              ; preds = %205
  %214 = call noalias ptr @_emalloc_256() #13
  br label %409

215:                                              ; preds = %205
  %216 = load i64, ptr %8, align 8
  %217 = add i64 24, %216
  %218 = add i64 %217, 1
  %219 = add i64 %218, 8
  %220 = sub i64 %219, 1
  %221 = and i64 %220, -8
  %222 = icmp ule i64 %221, 320
  br i1 %222, label %223, label %225

223:                                              ; preds = %215
  %224 = call noalias ptr @_emalloc_320() #13
  br label %407

225:                                              ; preds = %215
  %226 = load i64, ptr %8, align 8
  %227 = add i64 24, %226
  %228 = add i64 %227, 1
  %229 = add i64 %228, 8
  %230 = sub i64 %229, 1
  %231 = and i64 %230, -8
  %232 = icmp ule i64 %231, 384
  br i1 %232, label %233, label %235

233:                                              ; preds = %225
  %234 = call noalias ptr @_emalloc_384() #13
  br label %405

235:                                              ; preds = %225
  %236 = load i64, ptr %8, align 8
  %237 = add i64 24, %236
  %238 = add i64 %237, 1
  %239 = add i64 %238, 8
  %240 = sub i64 %239, 1
  %241 = and i64 %240, -8
  %242 = icmp ule i64 %241, 448
  br i1 %242, label %243, label %245

243:                                              ; preds = %235
  %244 = call noalias ptr @_emalloc_448() #13
  br label %403

245:                                              ; preds = %235
  %246 = load i64, ptr %8, align 8
  %247 = add i64 24, %246
  %248 = add i64 %247, 1
  %249 = add i64 %248, 8
  %250 = sub i64 %249, 1
  %251 = and i64 %250, -8
  %252 = icmp ule i64 %251, 512
  br i1 %252, label %253, label %255

253:                                              ; preds = %245
  %254 = call noalias ptr @_emalloc_512() #13
  br label %401

255:                                              ; preds = %245
  %256 = load i64, ptr %8, align 8
  %257 = add i64 24, %256
  %258 = add i64 %257, 1
  %259 = add i64 %258, 8
  %260 = sub i64 %259, 1
  %261 = and i64 %260, -8
  %262 = icmp ule i64 %261, 640
  br i1 %262, label %263, label %265

263:                                              ; preds = %255
  %264 = call noalias ptr @_emalloc_640() #13
  br label %399

265:                                              ; preds = %255
  %266 = load i64, ptr %8, align 8
  %267 = add i64 24, %266
  %268 = add i64 %267, 1
  %269 = add i64 %268, 8
  %270 = sub i64 %269, 1
  %271 = and i64 %270, -8
  %272 = icmp ule i64 %271, 768
  br i1 %272, label %273, label %275

273:                                              ; preds = %265
  %274 = call noalias ptr @_emalloc_768() #13
  br label %397

275:                                              ; preds = %265
  %276 = load i64, ptr %8, align 8
  %277 = add i64 24, %276
  %278 = add i64 %277, 1
  %279 = add i64 %278, 8
  %280 = sub i64 %279, 1
  %281 = and i64 %280, -8
  %282 = icmp ule i64 %281, 896
  br i1 %282, label %283, label %285

283:                                              ; preds = %275
  %284 = call noalias ptr @_emalloc_896() #13
  br label %395

285:                                              ; preds = %275
  %286 = load i64, ptr %8, align 8
  %287 = add i64 24, %286
  %288 = add i64 %287, 1
  %289 = add i64 %288, 8
  %290 = sub i64 %289, 1
  %291 = and i64 %290, -8
  %292 = icmp ule i64 %291, 1024
  br i1 %292, label %293, label %295

293:                                              ; preds = %285
  %294 = call noalias ptr @_emalloc_1024() #13
  br label %393

295:                                              ; preds = %285
  %296 = load i64, ptr %8, align 8
  %297 = add i64 24, %296
  %298 = add i64 %297, 1
  %299 = add i64 %298, 8
  %300 = sub i64 %299, 1
  %301 = and i64 %300, -8
  %302 = icmp ule i64 %301, 1280
  br i1 %302, label %303, label %305

303:                                              ; preds = %295
  %304 = call noalias ptr @_emalloc_1280() #13
  br label %391

305:                                              ; preds = %295
  %306 = load i64, ptr %8, align 8
  %307 = add i64 24, %306
  %308 = add i64 %307, 1
  %309 = add i64 %308, 8
  %310 = sub i64 %309, 1
  %311 = and i64 %310, -8
  %312 = icmp ule i64 %311, 1536
  br i1 %312, label %313, label %315

313:                                              ; preds = %305
  %314 = call noalias ptr @_emalloc_1536() #13
  br label %389

315:                                              ; preds = %305
  %316 = load i64, ptr %8, align 8
  %317 = add i64 24, %316
  %318 = add i64 %317, 1
  %319 = add i64 %318, 8
  %320 = sub i64 %319, 1
  %321 = and i64 %320, -8
  %322 = icmp ule i64 %321, 1792
  br i1 %322, label %323, label %325

323:                                              ; preds = %315
  %324 = call noalias ptr @_emalloc_1792() #13
  br label %387

325:                                              ; preds = %315
  %326 = load i64, ptr %8, align 8
  %327 = add i64 24, %326
  %328 = add i64 %327, 1
  %329 = add i64 %328, 8
  %330 = sub i64 %329, 1
  %331 = and i64 %330, -8
  %332 = icmp ule i64 %331, 2048
  br i1 %332, label %333, label %335

333:                                              ; preds = %325
  %334 = call noalias ptr @_emalloc_2048() #13
  br label %385

335:                                              ; preds = %325
  %336 = load i64, ptr %8, align 8
  %337 = add i64 24, %336
  %338 = add i64 %337, 1
  %339 = add i64 %338, 8
  %340 = sub i64 %339, 1
  %341 = and i64 %340, -8
  %342 = icmp ule i64 %341, 2560
  br i1 %342, label %343, label %345

343:                                              ; preds = %335
  %344 = call noalias ptr @_emalloc_2560() #13
  br label %383

345:                                              ; preds = %335
  %346 = load i64, ptr %8, align 8
  %347 = add i64 24, %346
  %348 = add i64 %347, 1
  %349 = add i64 %348, 8
  %350 = sub i64 %349, 1
  %351 = and i64 %350, -8
  %352 = icmp ule i64 %351, 3072
  br i1 %352, label %353, label %355

353:                                              ; preds = %345
  %354 = call noalias ptr @_emalloc_3072() #13
  br label %381

355:                                              ; preds = %345
  %356 = load i64, ptr %8, align 8
  %357 = add i64 24, %356
  %358 = add i64 %357, 1
  %359 = add i64 %358, 8
  %360 = sub i64 %359, 1
  %361 = and i64 %360, -8
  %362 = icmp ule i64 %361, 2093056
  br i1 %362, label %363, label %371

363:                                              ; preds = %355
  %364 = load i64, ptr %8, align 8
  %365 = add i64 24, %364
  %366 = add i64 %365, 1
  %367 = add i64 %366, 8
  %368 = sub i64 %367, 1
  %369 = and i64 %368, -8
  %370 = call noalias ptr @_emalloc_large(i64 noundef %369) #12
  br label %379

371:                                              ; preds = %355
  %372 = load i64, ptr %8, align 8
  %373 = add i64 24, %372
  %374 = add i64 %373, 1
  %375 = add i64 %374, 8
  %376 = sub i64 %375, 1
  %377 = and i64 %376, -8
  %378 = call noalias ptr @_emalloc_huge(i64 noundef %377) #12
  br label %379

379:                                              ; preds = %371, %363
  %380 = phi ptr [ %370, %363 ], [ %378, %371 ]
  br label %381

381:                                              ; preds = %379, %353
  %382 = phi ptr [ %354, %353 ], [ %380, %379 ]
  br label %383

383:                                              ; preds = %381, %343
  %384 = phi ptr [ %344, %343 ], [ %382, %381 ]
  br label %385

385:                                              ; preds = %383, %333
  %386 = phi ptr [ %334, %333 ], [ %384, %383 ]
  br label %387

387:                                              ; preds = %385, %323
  %388 = phi ptr [ %324, %323 ], [ %386, %385 ]
  br label %389

389:                                              ; preds = %387, %313
  %390 = phi ptr [ %314, %313 ], [ %388, %387 ]
  br label %391

391:                                              ; preds = %389, %303
  %392 = phi ptr [ %304, %303 ], [ %390, %389 ]
  br label %393

393:                                              ; preds = %391, %293
  %394 = phi ptr [ %294, %293 ], [ %392, %391 ]
  br label %395

395:                                              ; preds = %393, %283
  %396 = phi ptr [ %284, %283 ], [ %394, %393 ]
  br label %397

397:                                              ; preds = %395, %273
  %398 = phi ptr [ %274, %273 ], [ %396, %395 ]
  br label %399

399:                                              ; preds = %397, %263
  %400 = phi ptr [ %264, %263 ], [ %398, %397 ]
  br label %401

401:                                              ; preds = %399, %253
  %402 = phi ptr [ %254, %253 ], [ %400, %399 ]
  br label %403

403:                                              ; preds = %401, %243
  %404 = phi ptr [ %244, %243 ], [ %402, %401 ]
  br label %405

405:                                              ; preds = %403, %233
  %406 = phi ptr [ %234, %233 ], [ %404, %403 ]
  br label %407

407:                                              ; preds = %405, %223
  %408 = phi ptr [ %224, %223 ], [ %406, %405 ]
  br label %409

409:                                              ; preds = %407, %213
  %410 = phi ptr [ %214, %213 ], [ %408, %407 ]
  br label %411

411:                                              ; preds = %409, %203
  %412 = phi ptr [ %204, %203 ], [ %410, %409 ]
  br label %413

413:                                              ; preds = %411, %193
  %414 = phi ptr [ %194, %193 ], [ %412, %411 ]
  br label %415

415:                                              ; preds = %413, %183
  %416 = phi ptr [ %184, %183 ], [ %414, %413 ]
  br label %417

417:                                              ; preds = %415, %173
  %418 = phi ptr [ %174, %173 ], [ %416, %415 ]
  br label %419

419:                                              ; preds = %417, %163
  %420 = phi ptr [ %164, %163 ], [ %418, %417 ]
  br label %421

421:                                              ; preds = %419, %153
  %422 = phi ptr [ %154, %153 ], [ %420, %419 ]
  br label %423

423:                                              ; preds = %421, %143
  %424 = phi ptr [ %144, %143 ], [ %422, %421 ]
  br label %425

425:                                              ; preds = %423, %133
  %426 = phi ptr [ %134, %133 ], [ %424, %423 ]
  br label %427

427:                                              ; preds = %425, %123
  %428 = phi ptr [ %124, %123 ], [ %426, %425 ]
  br label %429

429:                                              ; preds = %427, %113
  %430 = phi ptr [ %114, %113 ], [ %428, %427 ]
  br label %431

431:                                              ; preds = %429, %103
  %432 = phi ptr [ %104, %103 ], [ %430, %429 ]
  br label %433

433:                                              ; preds = %431, %93
  %434 = phi ptr [ %94, %93 ], [ %432, %431 ]
  br label %435

435:                                              ; preds = %433, %83
  %436 = phi ptr [ %84, %83 ], [ %434, %433 ]
  br label %437

437:                                              ; preds = %435, %73
  %438 = phi ptr [ %74, %73 ], [ %436, %435 ]
  br label %439

439:                                              ; preds = %437, %63
  %440 = phi ptr [ %64, %63 ], [ %438, %437 ]
  br label %449

441:                                              ; preds = %47
  %442 = load i64, ptr %8, align 8
  %443 = add i64 24, %442
  %444 = add i64 %443, 1
  %445 = add i64 %444, 8
  %446 = sub i64 %445, 1
  %447 = and i64 %446, -8
  %448 = call noalias ptr @_emalloc(i64 noundef %447) #12
  br label %449

449:                                              ; preds = %441, %439
  %450 = phi ptr [ %440, %439 ], [ %448, %441 ]
  br label %451

451:                                              ; preds = %449, %39
  %452 = phi ptr [ %46, %39 ], [ %450, %449 ]
  store ptr %452, ptr %10, align 8
  %453 = load ptr, ptr %10, align 8
  store ptr %453, ptr %6, align 8
  store i32 1, ptr %7, align 4
  %454 = load i32, ptr %7, align 4
  %455 = load ptr, ptr %6, align 8
  store i32 %454, ptr %455, align 4
  %456 = load i8, ptr %9, align 1
  %457 = trunc i8 %456 to i1
  %458 = select i1 %457, i32 128, i32 0
  %459 = or i32 22, %458
  %460 = load ptr, ptr %10, align 8
  %461 = getelementptr inbounds %struct._zend_refcounted_h, ptr %460, i32 0, i32 1
  store i32 %459, ptr %461, align 4
  %462 = load ptr, ptr %10, align 8
  %463 = getelementptr inbounds %struct._zend_string, ptr %462, i32 0, i32 1
  store i64 0, ptr %463, align 8
  %464 = load i64, ptr %8, align 8
  %465 = load ptr, ptr %10, align 8
  %466 = getelementptr inbounds %struct._zend_string, ptr %465, i32 0, i32 2
  store i64 %464, ptr %466, align 8
  %467 = load ptr, ptr %10, align 8
  store ptr %467, ptr %18, align 8
  %468 = load ptr, ptr %18, align 8
  %469 = getelementptr inbounds %struct._zend_string, ptr %468, i32 0, i32 3
  %470 = load ptr, ptr %15, align 8
  %471 = load i64, ptr %16, align 8
  call void @llvm.memcpy.p0.p0.i64(ptr align 8 %469, ptr align 1 %470, i64 %471, i1 false)
  %472 = load ptr, ptr %18, align 8
  %473 = getelementptr inbounds %struct._zend_string, ptr %472, i32 0, i32 3
  %474 = load i64, ptr %16, align 8
  %475 = getelementptr inbounds [1 x i8], ptr %473, i64 0, i64 %474
  store i8 0, ptr %475, align 1
  %476 = load ptr, ptr %18, align 8
  store ptr %476, ptr %25, align 8
  %477 = load ptr, ptr %19, align 8
  %478 = load ptr, ptr %25, align 8
  %479 = load i32, ptr %22, align 4
  %480 = load i32, ptr %23, align 4
  %481 = call i32 @zend_alter_ini_entry_ex(ptr noundef %477, ptr noundef %478, i32 noundef %479, i32 noundef %480, i1 noundef zeroext false)
  store i32 %481, ptr %24, align 4
  %482 = load ptr, ptr %25, align 8
  store ptr %482, ptr %14, align 8
  %483 = load ptr, ptr %14, align 8
  %484 = getelementptr inbounds %struct._zend_refcounted_h, ptr %483, i32 0, i32 1
  %485 = load i32, ptr %484, align 4
  store i32 %485, ptr %12, align 4
  %486 = load i32, ptr %12, align 4
  %487 = and i32 %486, 1008
  %488 = and i32 %487, 64
  %489 = icmp ne i32 %488, 0
  br i1 %489, label %513, label %490

490:                                              ; preds = %451
  %491 = load ptr, ptr %14, align 8
  store ptr %491, ptr %11, align 8
  %492 = load ptr, ptr %11, align 8
  %493 = load i32, ptr %492, align 4
  %494 = icmp ugt i32 %493, 0
  call void @llvm.assume(i1 %494)
  %495 = load ptr, ptr %11, align 8
  %496 = load i32, ptr %495, align 4
  %497 = add i32 %496, -1
  store i32 %497, ptr %495, align 4
  %498 = icmp eq i32 %497, 0
  br i1 %498, label %499, label %512

499:                                              ; preds = %490
  %500 = load ptr, ptr %14, align 8
  %501 = getelementptr inbounds %struct._zend_refcounted_h, ptr %500, i32 0, i32 1
  %502 = load i32, ptr %501, align 4
  store i32 %502, ptr %13, align 4
  %503 = load i32, ptr %13, align 4
  %504 = and i32 %503, 1008
  %505 = and i32 %504, 128
  %506 = icmp ne i32 %505, 0
  br i1 %506, label %507, label %509

507:                                              ; preds = %499
  %508 = load ptr, ptr %14, align 8
  call void @free(ptr noundef %508) #13
  br label %511

509:                                              ; preds = %499
  %510 = load ptr, ptr %14, align 8
  call void @_efree(ptr noundef %510) #13
  br label %511

511:                                              ; preds = %509, %507
  br label %512

512:                                              ; preds = %511, %490
  br label %513

513:                                              ; preds = %512, %451
  %514 = load i32, ptr %24, align 4
  ret i32 %514
}