; Function Attrs: nounwind uwtable
define noundef i32 @zend_alter_ini_entry_chars(ptr noundef %0, ptr nocapture noundef readonly %1, i64 noundef %2, i32 noundef %3, i32 noundef %4) local_unnamed_addr #0 {
  %6 = and i32 %4, 60
  %.not = icmp eq i32 %6, 0
  %7 = and i64 %2, -8
  %8 = add i64 %7, 32
  br i1 %.not, label %9, label %11

9:                                                ; preds = %5
  %10 = tail call noalias ptr @__zend_malloc(i64 noundef %8) #19
  br label %13

11:                                               ; preds = %5
  %12 = tail call noalias ptr @_emalloc(i64 noundef %8) #19
  br label %13

13:                                               ; preds = %11, %9
  %14 = phi i32 [ 150, %9 ], [ 22, %11 ]
  %15 = phi ptr [ %10, %9 ], [ %12, %11 ]
  store i32 1, ptr %15, align 4
  %16 = getelementptr inbounds i8, ptr %15, i64 4
  store i32 %14, ptr %16, align 4
  %17 = getelementptr inbounds i8, ptr %15, i64 8
  store i64 0, ptr %17, align 8
  %18 = getelementptr inbounds i8, ptr %15, i64 16
  store i64 %2, ptr %18, align 8
  %19 = getelementptr inbounds i8, ptr %15, i64 24
  tail call void @llvm.memcpy.p0.p0.i64(ptr nonnull align 8 %19, ptr align 1 %1, i64 %2, i1 false)
  %20 = getelementptr inbounds [1 x i8], ptr %19, i64 0, i64 %2
  store i8 0, ptr %20, align 1
  %21 = tail call i32 @zend_alter_ini_entry_ex(ptr noundef %0, ptr noundef nonnull %15, i32 noundef %3, i32 noundef %4, i1 noundef zeroext false), !range !4
  %22 = load i32, ptr %16, align 4
  %23 = and i32 %22, 64
  %.not71 = icmp eq i32 %23, 0
  br i1 %.not71, label %24, label %33

24:                                               ; preds = %13
  %25 = load i32, ptr %15, align 4
  %26 = icmp ne i32 %25, 0
  tail call void @llvm.assume(i1 %26)
  %27 = add i32 %25, -1
  store i32 %27, ptr %15, align 4
  %28 = icmp eq i32 %27, 0
  br i1 %28, label %29, label %33

29:                                               ; preds = %24
  %30 = and i32 %22, 128
  %.not72 = icmp eq i32 %30, 0
  br i1 %.not72, label %32, label %31

31:                                               ; preds = %29
  tail call void @free(ptr noundef nonnull %15) #20
  br label %33

32:                                               ; preds = %29
  tail call void @_efree(ptr noundef nonnull %15) #20
  br label %33

33:                                               ; preds = %24, %32, %31, %13
  ret i32 %21
}